
board.o:     file format elf32-tradlittlemips

Disassembly of section .text:

00000000 <sbrk>:
       0:	3c1c0000 	lui	gp,0x0
       4:	279c0000 	addiu	gp,gp,0
       8:	0399e021 	addu	gp,gp,t9
       c:	8f870000 	lw	a3,0(gp)
      10:	8f820000 	lw	v0,0(gp)
      14:	8ce5000c 	lw	a1,12(a3)
      18:	8c420004 	lw	v0,4(v0)
      1c:	00a41821 	addu	v1,a1,a0
      20:	0062102b 	sltu	v0,v1,v0
      24:	14400008 	bnez	v0,48 <sbrk+0x48>
      28:	00003021 	move	a2,zero
      2c:	8f820000 	lw	v0,0(gp)
      30:	8c420008 	lw	v0,8(v0)
      34:	0043102b 	sltu	v0,v0,v1
      38:	14400003 	bnez	v0,48 <sbrk+0x48>
      3c:	00000000 	nop
      40:	ace3000c 	sw	v1,12(a3)
      44:	00a03021 	move	a2,a1
      48:	03e00008 	jr	ra
      4c:	00c01021 	move	v0,a2

00000050 <board_init_f>:
      50:	3c1c0000 	lui	gp,0x0
      54:	279c0000 	addiu	gp,gp,0
      58:	0399e021 	addu	gp,gp,t9
      5c:	27bdffb0 	addiu	sp,sp,-80
      60:	afbf004c 	sw	ra,76(sp)
      64:	afb20048 	sw	s2,72(sp)
      68:	afb10044 	sw	s1,68(sp)
      6c:	afb00040 	sw	s0,64(sp)
      70:	afbc0010 	sw	gp,16(sp)
      74:	27ba0018 	addiu	k0,sp,24
      78:	8f990000 	lw	t9,0(gp)
      7c:	24060024 	li	a2,36
      80:	03402021 	move	a0,k0
      84:	0320f809 	jalr	t9
      88:	00002821 	move	a1,zero
      8c:	8fbc0010 	lw	gp,16(sp)
      90:	8f990000 	lw	t9,0(gp)
      94:	0320f809 	jalr	t9
      98:	00000000 	nop
      9c:	8fbc0010 	lw	gp,16(sp)
      a0:	8f990000 	lw	t9,0(gp)
      a4:	0320f809 	jalr	t9
      a8:	00000000 	nop
      ac:	8fbc0010 	lw	gp,16(sp)
      b0:	3402e100 	li	v0,0xe100
      b4:	af420008 	sw	v0,8(k0)
      b8:	8f990000 	lw	t9,0(gp)
      bc:	0320f809 	jalr	t9
      c0:	00000000 	nop
      c4:	8fbc0010 	lw	gp,16(sp)
      c8:	8f990000 	lw	t9,0(gp)
      cc:	0320f809 	jalr	t9
      d0:	00000000 	nop
      d4:	8fbc0010 	lw	gp,16(sp)
      d8:	8f840000 	lw	a0,0(gp)
      dc:	8f990000 	lw	t9,0(gp)
      e0:	8f850000 	lw	a1,0(gp)
      e4:	0320f809 	jalr	t9
      e8:	24840000 	addiu	a0,a0,0
      ec:	8fbc0010 	lw	gp,16(sp)
      f0:	8f990000 	lw	t9,0(gp)
      f4:	0320f809 	jalr	t9
      f8:	00000000 	nop
      fc:	8fbc0010 	lw	gp,16(sp)
     100:	8f840000 	lw	a0,0(gp)
     104:	8f990000 	lw	t9,0(gp)
     108:	0320f809 	jalr	t9
     10c:	24840000 	addiu	a0,a0,0
     110:	8fbc0010 	lw	gp,16(sp)
     114:	8f990000 	lw	t9,0(gp)
     118:	0320f809 	jalr	t9
     11c:	00002021 	move	a0,zero
     120:	af420010 	sw	v0,16(k0)
     124:	8f420010 	lw	v0,16(k0)
     128:	10400008 	beqz	v0,14c <board_init_f+0xfc>
     12c:	8fbc0010 	lw	gp,16(sp)
     130:	8f850000 	lw	a1,0(gp)
     134:	8f440010 	lw	a0,16(k0)
     138:	8f990000 	lw	t9,0(gp)
     13c:	0320f809 	jalr	t9
     140:	24a50000 	addiu	a1,a1,0
     144:	10000006 	b	160 <board_init_f+0x110>
     148:	8fbc0010 	lw	gp,16(sp)
     14c:	8f840000 	lw	a0,0(gp)
     150:	8f990000 	lw	t9,0(gp)
     154:	0320f809 	jalr	t9
     158:	24840000 	addiu	a0,a0,0
     15c:	8fbc0010 	lw	gp,16(sp)
     160:	3c11b000 	lui	s1,0xb000
     164:	36310034 	ori	s1,s1,0x34
     168:	8f990000 	lw	t9,0(gp)
     16c:	8e300000 	lw	s0,0(s1)
     170:	0320f809 	jalr	t9
     174:	24040064 	li	a0,100
     178:	8fbc0010 	lw	gp,16(sp)
     17c:	3c020020 	lui	v0,0x20
     180:	02028025 	or	s0,s0,v0
     184:	3c02ffdf 	lui	v0,0xffdf
     188:	8f990000 	lw	t9,0(gp)
     18c:	3442ffff 	ori	v0,v0,0xffff
     190:	ae300000 	sw	s0,0(s1)
     194:	02028024 	and	s0,s0,v0
     198:	ae300000 	sw	s0,0(s1)
     19c:	0320f809 	jalr	t9
     1a0:	240400c8 	li	a0,200
     1a4:	8f510010 	lw	s1,16(k0)
     1a8:	8fbc0010 	lw	gp,16(sp)
     1ac:	3c048000 	lui	a0,0x8000
     1b0:	02248821 	addu	s1,s1,a0
     1b4:	2402f000 	li	v0,-4096
     1b8:	02228824 	and	s1,s1,v0
     1bc:	8f820000 	lw	v0,0(gp)
     1c0:	3c037fe0 	lui	v1,0x7fe0
     1c4:	3c10fffb 	lui	s0,0xfffb
     1c8:	00431021 	addu	v0,v0,v1
     1cc:	02228823 	subu	s1,s1,v0
     1d0:	2402c000 	li	v0,-16384
     1d4:	02228824 	and	s1,s1,v0
     1d8:	3610f000 	ori	s0,s0,0xf000
     1dc:	02308021 	addu	s0,s1,s0
     1e0:	2610ffd4 	addiu	s0,s0,-44
     1e4:	02001821 	move	v1,s0
     1e8:	af500000 	sw	s0,0(k0)
     1ec:	3c02fffe 	lui	v0,0xfffe
     1f0:	2610ffdc 	addiu	s0,s0,-36
     1f4:	02009021 	move	s2,s0
     1f8:	02028021 	addu	s0,s0,v0
     1fc:	ac700014 	sw	s0,20(v1)
     200:	2402fff0 	li	v0,-16
     204:	2610fff0 	addiu	s0,s0,-16
     208:	02028024 	and	s0,s0,v0
     20c:	ae000000 	sw	zero,0(s0)
     210:	ae00fffc 	sw	zero,-4(s0)
     214:	ac640018 	sw	a0,24(v1)
     218:	8f420010 	lw	v0,16(k0)
     21c:	8f990000 	lw	t9,0(gp)
     220:	24060024 	li	a2,36
     224:	ac62001c 	sw	v0,28(v1)
     228:	8f420008 	lw	v0,8(k0)
     22c:	02402021 	move	a0,s2
     230:	03402821 	move	a1,k0
     234:	0320f809 	jalr	t9
     238:	ac620000 	sw	v0,0(v1)
     23c:	8fbc0010 	lw	gp,16(sp)
     240:	02202821 	move	a1,s1
     244:	2610fff8 	addiu	s0,s0,-8
     248:	8f840000 	lw	a0,0(gp)
     24c:	8f990000 	lw	t9,0(gp)
     250:	0320f809 	jalr	t9
     254:	24840000 	addiu	a0,a0,0
     258:	8fbc0010 	lw	gp,16(sp)
     25c:	02002021 	move	a0,s0
     260:	02402821 	move	a1,s2
     264:	8f990000 	lw	t9,0(gp)
     268:	0320f809 	jalr	t9
     26c:	02203021 	move	a2,s1
     270:	8fbc0010 	lw	gp,16(sp)
     274:	8fbf004c 	lw	ra,76(sp)
     278:	8fb20048 	lw	s2,72(sp)
     27c:	8fb10044 	lw	s1,68(sp)
     280:	8fb00040 	lw	s0,64(sp)
     284:	03e00008 	jr	ra
     288:	27bd0050 	addiu	sp,sp,80

0000028c <OperationSelect>:
     28c:	3c1c0000 	lui	gp,0x0
     290:	279c0000 	addiu	gp,gp,0
     294:	0399e021 	addu	gp,gp,t9
     298:	27bdffe0 	addiu	sp,sp,-32
     29c:	afbf0018 	sw	ra,24(sp)
     2a0:	afbc0010 	sw	gp,16(sp)
     2a4:	8f840000 	lw	a0,0(gp)
     2a8:	8f990000 	lw	t9,0(gp)
     2ac:	0320f809 	jalr	t9
     2b0:	24840000 	addiu	a0,a0,0
     2b4:	8fbc0010 	lw	gp,16(sp)
     2b8:	24050001 	li	a1,1
     2bc:	8f840000 	lw	a0,0(gp)
     2c0:	8f990000 	lw	t9,0(gp)
     2c4:	0320f809 	jalr	t9
     2c8:	24840000 	addiu	a0,a0,0
     2cc:	8fbc0010 	lw	gp,16(sp)
     2d0:	24050002 	li	a1,2
     2d4:	8f840000 	lw	a0,0(gp)
     2d8:	8f990000 	lw	t9,0(gp)
     2dc:	0320f809 	jalr	t9
     2e0:	24840000 	addiu	a0,a0,0
     2e4:	8fbc0010 	lw	gp,16(sp)
     2e8:	24050003 	li	a1,3
     2ec:	8f840000 	lw	a0,0(gp)
     2f0:	8f990000 	lw	t9,0(gp)
     2f4:	0320f809 	jalr	t9
     2f8:	24840000 	addiu	a0,a0,0
     2fc:	8fbc0010 	lw	gp,16(sp)
     300:	24050004 	li	a1,4
     304:	8f840000 	lw	a0,0(gp)
     308:	8f990000 	lw	t9,0(gp)
     30c:	0320f809 	jalr	t9
     310:	24840000 	addiu	a0,a0,0
     314:	8fbc0010 	lw	gp,16(sp)
     318:	24050007 	li	a1,7
     31c:	8f840000 	lw	a0,0(gp)
     320:	8f990000 	lw	t9,0(gp)
     324:	0320f809 	jalr	t9
     328:	24840000 	addiu	a0,a0,0
     32c:	8fbc0010 	lw	gp,16(sp)
     330:	8fbf0018 	lw	ra,24(sp)
     334:	24050009 	li	a1,9
     338:	8f840000 	lw	a0,0(gp)
     33c:	8f990000 	lw	t9,0(gp)
     340:	27bd0020 	addiu	sp,sp,32
     344:	03200008 	jr	t9
     348:	24840000 	addiu	a0,a0,0

0000034c <tftp_config>:
     34c:	3c1c0000 	lui	gp,0x0
     350:	279c0000 	addiu	gp,gp,0
     354:	0399e021 	addu	gp,gp,t9
     358:	27bdfd40 	addiu	sp,sp,-704
     35c:	afbf02bc 	sw	ra,700(sp)
     360:	afbe02b8 	sw	s8,696(sp)
     364:	afb702b4 	sw	s7,692(sp)
     368:	afb602b0 	sw	s6,688(sp)
     36c:	afb502ac 	sw	s5,684(sp)
     370:	afb402a8 	sw	s4,680(sp)
     374:	afb302a4 	sw	s3,676(sp)
     378:	afb202a0 	sw	s2,672(sp)
     37c:	afb1029c 	sw	s1,668(sp)
     380:	afb00298 	sw	s0,664(sp)
     384:	afbc0010 	sw	gp,16(sp)
     388:	0080b021 	move	s6,a0
     38c:	8f840000 	lw	a0,0(gp)
     390:	8f990000 	lw	t9,0(gp)
     394:	00a0a821 	move	s5,a1
     398:	0320f809 	jalr	t9
     39c:	24840000 	addiu	a0,a0,0
     3a0:	8fbc0010 	lw	gp,16(sp)
     3a4:	27a40018 	addiu	a0,sp,24
     3a8:	00002821 	move	a1,zero
     3ac:	8f990000 	lw	t9,0(gp)
     3b0:	24060080 	li	a2,128
     3b4:	0320f809 	jalr	t9
     3b8:	27be0098 	addiu	s8,sp,152
     3bc:	8fbc0010 	lw	gp,16(sp)
     3c0:	03c02021 	move	a0,s8
     3c4:	00002821 	move	a1,zero
     3c8:	8f990000 	lw	t9,0(gp)
     3cc:	24060080 	li	a2,128
     3d0:	0320f809 	jalr	t9
     3d4:	27b00118 	addiu	s0,sp,280
     3d8:	8fbc0010 	lw	gp,16(sp)
     3dc:	02002021 	move	a0,s0
     3e0:	00002821 	move	a1,zero
     3e4:	8f990000 	lw	t9,0(gp)
     3e8:	24060080 	li	a2,128
     3ec:	0320f809 	jalr	t9
     3f0:	27b40198 	addiu	s4,sp,408
     3f4:	8fbc0010 	lw	gp,16(sp)
     3f8:	02802021 	move	a0,s4
     3fc:	00002821 	move	a1,zero
     400:	8f990000 	lw	t9,0(gp)
     404:	24060080 	li	a2,128
     408:	0320f809 	jalr	t9
     40c:	27b30218 	addiu	s3,sp,536
     410:	8fbc0010 	lw	gp,16(sp)
     414:	00002821 	move	a1,zero
     418:	24060080 	li	a2,128
     41c:	8f990000 	lw	t9,0(gp)
     420:	0320f809 	jalr	t9
     424:	02602021 	move	a0,s3
     428:	8fbc0010 	lw	gp,16(sp)
     42c:	8f840000 	lw	a0,0(gp)
     430:	8f990000 	lw	t9,0(gp)
     434:	8f910000 	lw	s1,0(gp)
     438:	0320f809 	jalr	t9
     43c:	24840000 	addiu	a0,a0,0
     440:	8fbc0010 	lw	gp,16(sp)
     444:	8f990000 	lw	t9,0(gp)
     448:	8f970000 	lw	s7,0(gp)
     44c:	0320f809 	jalr	t9
     450:	26240000 	addiu	a0,s1,0
     454:	8fbc0010 	lw	gp,16(sp)
     458:	00402021 	move	a0,v0
     45c:	8f990000 	lw	t9,0(gp)
     460:	0320f809 	jalr	t9
     464:	00409021 	move	s2,v0
     468:	8fbc0010 	lw	gp,16(sp)
     46c:	02402821 	move	a1,s2
     470:	02002021 	move	a0,s0
     474:	8f990000 	lw	t9,0(gp)
     478:	0320f809 	jalr	t9
     47c:	00403021 	move	a2,v0
     480:	8fbc0010 	lw	gp,16(sp)
     484:	8f990000 	lw	t9,0(gp)
     488:	0320f809 	jalr	t9
     48c:	02402021 	move	a0,s2
     490:	8fbc0010 	lw	gp,16(sp)
     494:	00403021 	move	a2,v0
     498:	02602021 	move	a0,s3
     49c:	8f990000 	lw	t9,0(gp)
     4a0:	0320f809 	jalr	t9
     4a4:	02402821 	move	a1,s2
     4a8:	8fbc0010 	lw	gp,16(sp)
     4ac:	02002821 	move	a1,s0
     4b0:	8f990000 	lw	t9,0(gp)
     4b4:	0320f809 	jalr	t9
     4b8:	26e40000 	addiu	a0,s7,0
     4bc:	8fbc0010 	lw	gp,16(sp)
     4c0:	8f990000 	lw	t9,0(gp)
     4c4:	0320f809 	jalr	t9
     4c8:	02002021 	move	a0,s0
     4cc:	8fbc0010 	lw	gp,16(sp)
     4d0:	26240000 	addiu	a0,s1,0
     4d4:	8f990000 	lw	t9,0(gp)
     4d8:	0320f809 	jalr	t9
     4dc:	02002821 	move	a1,s0
     4e0:	8fbc0010 	lw	gp,16(sp)
     4e4:	02602021 	move	a0,s3
     4e8:	90820000 	lbu	v0,0(a0)
     4ec:	92010000 	lbu	at,0(s0)
     4f0:	24840001 	addiu	a0,a0,1
     4f4:	14220004 	bne	at,v0,508 <tftp_config+0x1bc>
     4f8:	26100001 	addiu	s0,s0,1
     4fc:	1440fffb 	bnez	v0,4ec <tftp_config+0x1a0>
     500:	90820000 	lbu	v0,0(a0)
     504:	00201021 	move	v0,at
     508:	00411023 	subu	v0,v0,at
     50c:	10400004 	beqz	v0,520 <tftp_config+0x1d4>
     510:	8f830000 	lw	v1,0(gp)
     514:	8c620000 	lw	v0,0(v1)
     518:	24420001 	addiu	v0,v0,1
     51c:	ac620000 	sw	v0,0(v1)
     520:	8f840000 	lw	a0,0(gp)
     524:	8f990000 	lw	t9,0(gp)
     528:	8f900000 	lw	s0,0(gp)
     52c:	0320f809 	jalr	t9
     530:	24840000 	addiu	a0,a0,0
     534:	8fbc0010 	lw	gp,16(sp)
     538:	8f990000 	lw	t9,0(gp)
     53c:	0320f809 	jalr	t9
     540:	26040000 	addiu	a0,s0,0
     544:	8fbc0010 	lw	gp,16(sp)
     548:	00402021 	move	a0,v0
     54c:	8f990000 	lw	t9,0(gp)
     550:	0320f809 	jalr	t9
     554:	00409021 	move	s2,v0
     558:	8fbc0010 	lw	gp,16(sp)
     55c:	02802021 	move	a0,s4
     560:	02402821 	move	a1,s2
     564:	8f990000 	lw	t9,0(gp)
     568:	0320f809 	jalr	t9
     56c:	00403021 	move	a2,v0
     570:	8fbc0010 	lw	gp,16(sp)
     574:	02602021 	move	a0,s3
     578:	00002821 	move	a1,zero
     57c:	8f990000 	lw	t9,0(gp)
     580:	0320f809 	jalr	t9
     584:	24060080 	li	a2,128
     588:	8fbc0010 	lw	gp,16(sp)
     58c:	8f990000 	lw	t9,0(gp)
     590:	0320f809 	jalr	t9
     594:	02402021 	move	a0,s2
     598:	8fbc0010 	lw	gp,16(sp)
     59c:	00403021 	move	a2,v0
     5a0:	02602021 	move	a0,s3
     5a4:	8f990000 	lw	t9,0(gp)
     5a8:	0320f809 	jalr	t9
     5ac:	02402821 	move	a1,s2
     5b0:	8fbc0010 	lw	gp,16(sp)
     5b4:	02802821 	move	a1,s4
     5b8:	8f990000 	lw	t9,0(gp)
     5bc:	0320f809 	jalr	t9
     5c0:	26e40000 	addiu	a0,s7,0
     5c4:	8fbc0010 	lw	gp,16(sp)
     5c8:	8f990000 	lw	t9,0(gp)
     5cc:	0320f809 	jalr	t9
     5d0:	02802021 	move	a0,s4
     5d4:	8fbc0010 	lw	gp,16(sp)
     5d8:	26040000 	addiu	a0,s0,0
     5dc:	8f990000 	lw	t9,0(gp)
     5e0:	0320f809 	jalr	t9
     5e4:	02802821 	move	a1,s4
     5e8:	8fbc0010 	lw	gp,16(sp)
     5ec:	92620000 	lbu	v0,0(s3)
     5f0:	92810000 	lbu	at,0(s4)
     5f4:	26730001 	addiu	s3,s3,1
     5f8:	14220004 	bne	at,v0,60c <tftp_config+0x2c0>
     5fc:	26940001 	addiu	s4,s4,1
     600:	1440fffb 	bnez	v0,5f0 <tftp_config+0x2a4>
     604:	92620000 	lbu	v0,0(s3)
     608:	00201021 	move	v0,at
     60c:	00411023 	subu	v0,v0,at
     610:	10400006 	beqz	v0,62c <tftp_config+0x2e0>
     614:	26c2fff9 	addiu	v0,s6,-7
     618:	8f830000 	lw	v1,0(gp)
     61c:	8c620000 	lw	v0,0(v1)
     620:	24420001 	addiu	v0,v0,1
     624:	ac620000 	sw	v0,0(v1)
     628:	26c2fff9 	addiu	v0,s6,-7
     62c:	2c420003 	sltiu	v0,v0,3
     630:	10400014 	beqz	v0,684 <tftp_config+0x338>
     634:	24020002 	li	v0,2
     638:	24020008 	li	v0,8
     63c:	16c20004 	bne	s6,v0,650 <tftp_config+0x304>
     640:	00000000 	nop
     644:	8f820000 	lw	v0,0(gp)
     648:	10000003 	b	658 <tftp_config+0x30c>
     64c:	24420000 	addiu	v0,v0,0
     650:	8f820000 	lw	v0,0(gp)
     654:	24420000 	addiu	v0,v0,0
     658:	8f840000 	lw	a0,0(gp)
     65c:	8f990000 	lw	t9,0(gp)
     660:	aea20004 	sw	v0,4(s5)
     664:	0320f809 	jalr	t9
     668:	24840000 	addiu	a0,a0,0
     66c:	8fbc0010 	lw	gp,16(sp)
     670:	8ea40008 	lw	a0,8(s5)
     674:	24030080 	li	v1,128
     678:	8f820000 	lw	v0,0(gp)
     67c:	10000015 	b	6d4 <tftp_config+0x388>
     680:	24420000 	addiu	v0,v0,0
     684:	16c20004 	bne	s6,v0,698 <tftp_config+0x34c>
     688:	8f820000 	lw	v0,0(gp)
     68c:	8f990000 	lw	t9,0(gp)
     690:	10000007 	b	6b0 <tftp_config+0x364>
     694:	24420000 	addiu	v0,v0,0
     698:	24020001 	li	v0,1
     69c:	16c20015 	bne	s6,v0,6f4 <tftp_config+0x3a8>
     6a0:	8f910000 	lw	s1,0(gp)
     6a4:	8f820000 	lw	v0,0(gp)
     6a8:	8f990000 	lw	t9,0(gp)
     6ac:	24420000 	addiu	v0,v0,0
     6b0:	8f840000 	lw	a0,0(gp)
     6b4:	aea20004 	sw	v0,4(s5)
     6b8:	0320f809 	jalr	t9
     6bc:	24840000 	addiu	a0,a0,0
     6c0:	8fbc0010 	lw	gp,16(sp)
     6c4:	8ea40008 	lw	a0,8(s5)
     6c8:	24030080 	li	v1,128
     6cc:	8f820000 	lw	v0,0(gp)
     6d0:	24420000 	addiu	v0,v0,0
     6d4:	90410000 	lbu	at,0(v0)
     6d8:	2463ffff 	addiu	v1,v1,-1
     6dc:	a0810000 	sb	at,0(a0)
     6e0:	10200003 	beqz	at,6f0 <tftp_config+0x3a4>
     6e4:	24840001 	addiu	a0,a0,1
     6e8:	1460fffa 	bnez	v1,6d4 <tftp_config+0x388>
     6ec:	24420001 	addiu	v0,v0,1
     6f0:	8f910000 	lw	s1,0(gp)
     6f4:	8f990000 	lw	t9,0(gp)
     6f8:	0320f809 	jalr	t9
     6fc:	26240000 	addiu	a0,s1,0
     700:	00409021 	move	s2,v0
     704:	10400015 	beqz	v0,75c <tftp_config+0x410>
     708:	8fbc0010 	lw	gp,16(sp)
     70c:	8f990000 	lw	t9,0(gp)
     710:	0320f809 	jalr	t9
     714:	00402021 	move	a0,v0
     718:	8fbc0010 	lw	gp,16(sp)
     71c:	02402821 	move	a1,s2
     720:	00403021 	move	a2,v0
     724:	8f990000 	lw	t9,0(gp)
     728:	0320f809 	jalr	t9
     72c:	03c02021 	move	a0,s8
     730:	8fbc0010 	lw	gp,16(sp)
     734:	8f990000 	lw	t9,0(gp)
     738:	0320f809 	jalr	t9
     73c:	02402021 	move	a0,s2
     740:	8fbc0010 	lw	gp,16(sp)
     744:	02402821 	move	a1,s2
     748:	00403021 	move	a2,v0
     74c:	8f990000 	lw	t9,0(gp)
     750:	0320f809 	jalr	t9
     754:	27a40018 	addiu	a0,sp,24
     758:	8fbc0010 	lw	gp,16(sp)
     75c:	8f990000 	lw	t9,0(gp)
     760:	27b00098 	addiu	s0,sp,152
     764:	02002821 	move	a1,s0
     768:	0320f809 	jalr	t9
     76c:	26e40000 	addiu	a0,s7,0
     770:	8fbc0010 	lw	gp,16(sp)
     774:	8f990000 	lw	t9,0(gp)
     778:	0320f809 	jalr	t9
     77c:	02002021 	move	a0,s0
     780:	8fbc0010 	lw	gp,16(sp)
     784:	8ea40008 	lw	a0,8(s5)
     788:	02002821 	move	a1,s0
     78c:	8f990000 	lw	t9,0(gp)
     790:	0320f809 	jalr	t9
     794:	24060080 	li	a2,128
     798:	8fbc0010 	lw	gp,16(sp)
     79c:	26240000 	addiu	a0,s1,0
     7a0:	8f990000 	lw	t9,0(gp)
     7a4:	0320f809 	jalr	t9
     7a8:	02002821 	move	a1,s0
     7ac:	8fbc0010 	lw	gp,16(sp)
     7b0:	27a20018 	addiu	v0,sp,24
     7b4:	90430000 	lbu	v1,0(v0)
     7b8:	92010000 	lbu	at,0(s0)
     7bc:	24420001 	addiu	v0,v0,1
     7c0:	14230004 	bne	at,v1,7d4 <tftp_config+0x488>
     7c4:	26100001 	addiu	s0,s0,1
     7c8:	1460fffb 	bnez	v1,7b8 <tftp_config+0x46c>
     7cc:	90430000 	lbu	v1,0(v0)
     7d0:	00201821 	move	v1,at
     7d4:	00611823 	subu	v1,v1,at
     7d8:	10600005 	beqz	v1,7f0 <tftp_config+0x4a4>
     7dc:	8fbf02bc 	lw	ra,700(sp)
     7e0:	8f830000 	lw	v1,0(gp)
     7e4:	8c620000 	lw	v0,0(v1)
     7e8:	24420001 	addiu	v0,v0,1
     7ec:	ac620000 	sw	v0,0(v1)
     7f0:	8fbe02b8 	lw	s8,696(sp)
     7f4:	8fb702b4 	lw	s7,692(sp)
     7f8:	8fb602b0 	lw	s6,688(sp)
     7fc:	8fb502ac 	lw	s5,684(sp)
     800:	8fb402a8 	lw	s4,680(sp)
     804:	8fb302a4 	lw	s3,676(sp)
     808:	8fb202a0 	lw	s2,672(sp)
     80c:	8fb1029c 	lw	s1,668(sp)
     810:	8fb00298 	lw	s0,664(sp)
     814:	00001021 	move	v0,zero
     818:	03e00008 	jr	ra
     81c:	27bd02c0 	addiu	sp,sp,704

00000820 <trigger_hw_reset>:
     820:	03e00008 	jr	ra
     824:	00000000 	nop

00000828 <config_usb_ehciohci>:
     828:	3c03b000 	lui	v1,0xb000
     82c:	34640034 	ori	a0,v1,0x34
     830:	8c850000 	lw	a1,0(a0)
     834:	3c020240 	lui	v0,0x240
     838:	34630030 	ori	v1,v1,0x30
     83c:	00a22825 	or	a1,a1,v0
     840:	ac850000 	sw	a1,0(a0)
     844:	8c650000 	lw	a1,0(v1)
     848:	3c02fffb 	lui	v0,0xfffb
     84c:	3442ffff 	ori	v0,v0,0xffff
     850:	00a22824 	and	a1,a1,v0
     854:	ac650000 	sw	a1,0(v1)
     858:	03e00008 	jr	ra
     85c:	00000000 	nop

00000860 <board_init_r>:
     860:	3c1c0000 	lui	gp,0x0
     864:	279c0000 	addiu	gp,gp,0
     868:	0399e021 	addu	gp,gp,t9
     86c:	27bdff88 	addiu	sp,sp,-120
     870:	afbf0070 	sw	ra,112(sp)
     874:	afb7006c 	sw	s7,108(sp)
     878:	afb60068 	sw	s6,104(sp)
     87c:	afb50064 	sw	s5,100(sp)
     880:	afb40060 	sw	s4,96(sp)
     884:	afb3005c 	sw	s3,92(sp)
     888:	afb20058 	sw	s2,88(sp)
     88c:	afb10054 	sw	s1,84(sp)
     890:	afb00050 	sw	s0,80(sp)
     894:	afbc0018 	sw	gp,24(sp)
     898:	8f990000 	lw	t9,0(gp)
     89c:	00a09021 	move	s2,a1
     8a0:	3c0481ff 	lui	a0,0x81ff
     8a4:	03402821 	move	a1,k0
     8a8:	0320f809 	jalr	t9
     8ac:	24060024 	li	a2,36
     8b0:	3c1a81ff 	lui	k0,0x81ff
     8b4:	8f420004 	lw	v0,4(k0)
     8b8:	8fbc0018 	lw	gp,24(sp)
     8bc:	24160033 	li	s6,51
     8c0:	34420001 	ori	v0,v0,0x1
     8c4:	af420004 	sw	v0,4(k0)
     8c8:	3c02b000 	lui	v0,0xb000
     8cc:	34420010 	ori	v0,v0,0x10
     8d0:	8c420000 	lw	v0,0(v0)
     8d4:	00021a02 	srl	v1,v0,0x8
     8d8:	00021242 	srl	v0,v0,0x9
     8dc:	30420002 	andi	v0,v0,0x2
     8e0:	30630001 	andi	v1,v1,0x1
     8e4:	00621821 	addu	v1,v1,v0
     8e8:	24020002 	li	v0,2
     8ec:	10620013 	beq	v1,v0,93c <board_init_r+0xdc>
     8f0:	3c021312 	lui	v0,0x1312
     8f4:	28620003 	slti	v0,v1,3
     8f8:	10400005 	beqz	v0,910 <board_init_r+0xb0>
     8fc:	00000000 	nop
     900:	10600008 	beqz	v1,924 <board_init_r+0xc4>
     904:	8f830000 	lw	v1,0(gp)
     908:	1000001b 	b	978 <board_init_r+0x118>
     90c:	3c05b000 	lui	a1,0xb000
     910:	24020003 	li	v0,3
     914:	1062000f 	beq	v1,v0,954 <board_init_r+0xf4>
     918:	3c05b000 	lui	a1,0xb000
     91c:	10000017 	b	97c <board_init_r+0x11c>
     920:	34a40304 	ori	a0,a1,0x304
     924:	3c021575 	lui	v0,0x1575
     928:	34422a00 	ori	v0,v0,0x2a00
     92c:	ac620000 	sw	v0,0(v1)
     930:	3c020727 	lui	v0,0x727
     934:	1000000d 	b	96c <board_init_r+0x10c>
     938:	34420e00 	ori	v0,v0,0xe00
     93c:	8f830000 	lw	v1,0(gp)
     940:	3442d000 	ori	v0,v0,0xd000
     944:	ac620000 	sw	v0,0(v1)
     948:	3c0204c4 	lui	v0,0x4c4
     94c:	10000007 	b	96c <board_init_r+0x10c>
     950:	3442b400 	ori	v0,v0,0xb400
     954:	8f830000 	lw	v1,0(gp)
     958:	3c0211e1 	lui	v0,0x11e1
     95c:	3442a300 	ori	v0,v0,0xa300
     960:	ac620000 	sw	v0,0(v1)
     964:	3c0205f5 	lui	v0,0x5f5
     968:	3442e100 	ori	v0,v0,0xe100
     96c:	8f830000 	lw	v1,0(gp)
     970:	ac620000 	sw	v0,0(v1)
     974:	3c05b000 	lui	a1,0xb000
     978:	34a40304 	ori	a0,a1,0x304
     97c:	8c820000 	lw	v0,0(a0)
     980:	3c03ffff 	lui	v1,0xffff
     984:	8f990000 	lw	t9,0(gp)
     988:	00431024 	and	v0,v0,v1
     98c:	34420300 	ori	v0,v0,0x300
     990:	ac820000 	sw	v0,0(a0)
     994:	0320f809 	jalr	t9
     998:	34b10038 	ori	s1,a1,0x38
     99c:	8e230000 	lw	v1,0(s1)
     9a0:	00031042 	srl	v0,v1,0x1
     9a4:	30420001 	andi	v0,v0,0x1
     9a8:	10400016 	beqz	v0,a04 <board_init_r+0x1a4>
     9ac:	8fbc0018 	lw	gp,24(sp)
     9b0:	8f900000 	lw	s0,0(gp)
     9b4:	8f990000 	lw	t9,0(gp)
     9b8:	0320f809 	jalr	t9
     9bc:	26040000 	addiu	a0,s0,0
     9c0:	8fbc0018 	lw	gp,24(sp)
     9c4:	8f840000 	lw	a0,0(gp)
     9c8:	8f990000 	lw	t9,0(gp)
     9cc:	0320f809 	jalr	t9
     9d0:	24840000 	addiu	a0,a0,0
     9d4:	8fbc0018 	lw	gp,24(sp)
     9d8:	8f990000 	lw	t9,0(gp)
     9dc:	0320f809 	jalr	t9
     9e0:	26040000 	addiu	a0,s0,0
     9e4:	8e220000 	lw	v0,0(s1)
     9e8:	8fbc0018 	lw	gp,24(sp)
     9ec:	2403fffd 	li	v1,-3
     9f0:	34420002 	ori	v0,v0,0x2
     9f4:	ae220000 	sw	v0,0(s1)
     9f8:	8e220000 	lw	v0,0(s1)
     9fc:	10000031 	b	ac4 <board_init_r+0x264>
     a00:	00431024 	and	v0,v0,v1
     a04:	00031082 	srl	v0,v1,0x2
     a08:	30420001 	andi	v0,v0,0x1
     a0c:	10400015 	beqz	v0,a64 <board_init_r+0x204>
     a10:	8f900000 	lw	s0,0(gp)
     a14:	8f990000 	lw	t9,0(gp)
     a18:	0320f809 	jalr	t9
     a1c:	26040000 	addiu	a0,s0,0
     a20:	8fbc0018 	lw	gp,24(sp)
     a24:	8f840000 	lw	a0,0(gp)
     a28:	8f990000 	lw	t9,0(gp)
     a2c:	0320f809 	jalr	t9
     a30:	24840000 	addiu	a0,a0,0
     a34:	8fbc0018 	lw	gp,24(sp)
     a38:	8f990000 	lw	t9,0(gp)
     a3c:	0320f809 	jalr	t9
     a40:	26040000 	addiu	a0,s0,0
     a44:	8e220000 	lw	v0,0(s1)
     a48:	8fbc0018 	lw	gp,24(sp)
     a4c:	2403fffb 	li	v1,-5
     a50:	34420004 	ori	v0,v0,0x4
     a54:	ae220000 	sw	v0,0(s1)
     a58:	8e220000 	lw	v0,0(s1)
     a5c:	10000019 	b	ac4 <board_init_r+0x264>
     a60:	00431024 	and	v0,v0,v1
     a64:	000310c2 	srl	v0,v1,0x3
     a68:	30420001 	andi	v0,v0,0x1
     a6c:	10400017 	beqz	v0,acc <board_init_r+0x26c>
     a70:	3c037fe0 	lui	v1,0x7fe0
     a74:	8f900000 	lw	s0,0(gp)
     a78:	8f990000 	lw	t9,0(gp)
     a7c:	0320f809 	jalr	t9
     a80:	26040000 	addiu	a0,s0,0
     a84:	8fbc0018 	lw	gp,24(sp)
     a88:	8f840000 	lw	a0,0(gp)
     a8c:	8f990000 	lw	t9,0(gp)
     a90:	0320f809 	jalr	t9
     a94:	24840000 	addiu	a0,a0,0
     a98:	8fbc0018 	lw	gp,24(sp)
     a9c:	8f990000 	lw	t9,0(gp)
     aa0:	0320f809 	jalr	t9
     aa4:	26040000 	addiu	a0,s0,0
     aa8:	8e220000 	lw	v0,0(s1)
     aac:	8fbc0018 	lw	gp,24(sp)
     ab0:	2403fff7 	li	v1,-9
     ab4:	34420008 	ori	v0,v0,0x8
     ab8:	ae220000 	sw	v0,0(s1)
     abc:	8e220000 	lw	v0,0(s1)
     ac0:	00431024 	and	v0,v0,v1
     ac4:	ae220000 	sw	v0,0(s1)
     ac8:	3c037fe0 	lui	v1,0x7fe0
     acc:	02431821 	addu	v1,s2,v1
     ad0:	8f820000 	lw	v0,0(gp)
     ad4:	af430014 	sw	v1,20(k0)
     ad8:	8f830000 	lw	v1,0(gp)
     adc:	8f940000 	lw	s4,0(gp)
     ae0:	8f870000 	lw	a3,0(gp)
     ae4:	00521023 	subu	v0,v0,s2
     ae8:	ac620000 	sw	v0,0(v1)
     aec:	12870016 	beq	s4,a3,b48 <board_init_r+0x2e8>
     af0:	8f830000 	lw	v1,0(gp)
     af4:	8e84000c 	lw	a0,12(s4)
     af8:	8f420014 	lw	v0,20(k0)
     afc:	8e850000 	lw	a1,0(s4)
     b00:	8f430014 	lw	v1,20(k0)
     b04:	8e860010 	lw	a2,16(s4)
     b08:	00822021 	addu	a0,a0,v0
     b0c:	ae84000c 	sw	a0,12(s4)
     b10:	00a32021 	addu	a0,a1,v1
     b14:	10c00004 	beqz	a2,b28 <board_init_r+0x2c8>
     b18:	ae840000 	sw	a0,0(s4)
     b1c:	8f420014 	lw	v0,20(k0)
     b20:	00c22021 	addu	a0,a2,v0
     b24:	ae840010 	sw	a0,16(s4)
     b28:	8e840014 	lw	a0,20(s4)
     b2c:	10800004 	beqz	a0,b40 <board_init_r+0x2e0>
     b30:	00000000 	nop
     b34:	8f420014 	lw	v0,20(k0)
     b38:	00822021 	addu	a0,a0,v0
     b3c:	ae840014 	sw	a0,20(s4)
     b40:	1000ffea 	b	aec <board_init_r+0x28c>
     b44:	26940018 	addiu	s4,s4,24
     b48:	8f440014 	lw	a0,20(k0)
     b4c:	8f990000 	lw	t9,0(gp)
     b50:	8c620000 	lw	v0,0(v1)
     b54:	8f530000 	lw	s3,0(k0)
     b58:	00441021 	addu	v0,v0,a0
     b5c:	0320f809 	jalr	t9
     b60:	ac620000 	sw	v0,0(v1)
     b64:	00401821 	move	v1,v0
     b68:	2402ffff 	li	v0,-1
     b6c:	14620007 	bne	v1,v0,b8c <board_init_r+0x32c>
     b70:	8fbc0018 	lw	gp,24(sp)
     b74:	8f840000 	lw	a0,0(gp)
     b78:	8f990000 	lw	t9,0(gp)
     b7c:	0320f809 	jalr	t9
     b80:	24840000 	addiu	a0,a0,0
     b84:	1000ffff 	b	b84 <board_init_r+0x324>
     b88:	00000000 	nop
     b8c:	ae630024 	sw	v1,36(s3)
     b90:	ae600020 	sw	zero,32(s3)
     b94:	ae600028 	sw	zero,40(s3)
     b98:	8f460014 	lw	a2,20(k0)
     b9c:	8f830000 	lw	v1,0(gp)
     ba0:	3c028020 	lui	v0,0x8020
     ba4:	00c23021 	addu	a2,a2,v0
     ba8:	ac660008 	sw	a2,8(v1)
     bac:	3c02fffb 	lui	v0,0xfffb
     bb0:	8f830000 	lw	v1,0(gp)
     bb4:	3442f000 	ori	v0,v0,0xf000
     bb8:	00c21021 	addu	v0,a2,v0
     bbc:	ac620004 	sw	v0,4(v1)
     bc0:	8f830000 	lw	v1,0(gp)
     bc4:	8f990000 	lw	t9,0(gp)
     bc8:	00402021 	move	a0,v0
     bcc:	ac62000c 	sw	v0,12(v1)
     bd0:	00c23023 	subu	a2,a2,v0
     bd4:	0320f809 	jalr	t9
     bd8:	00002821 	move	a1,zero
     bdc:	8fbc0018 	lw	gp,24(sp)
     be0:	8f990000 	lw	t9,0(gp)
     be4:	0320f809 	jalr	t9
     be8:	00008821 	move	s1,zero
     bec:	8fbc0018 	lw	gp,24(sp)
     bf0:	8f990000 	lw	t9,0(gp)
     bf4:	0320f809 	jalr	t9
     bf8:	00000000 	nop
     bfc:	8fbc0018 	lw	gp,24(sp)
     c00:	8f990000 	lw	t9,0(gp)
     c04:	0320f809 	jalr	t9
     c08:	00000000 	nop
     c0c:	8fbc0018 	lw	gp,24(sp)
     c10:	8f840000 	lw	a0,0(gp)
     c14:	8f990000 	lw	t9,0(gp)
     c18:	0320f809 	jalr	t9
     c1c:	24840000 	addiu	a0,a0,0
     c20:	8fbc0018 	lw	gp,24(sp)
     c24:	00408021 	move	s0,v0
     c28:	02339021 	addu	s2,s1,s3
     c2c:	12000007 	beqz	s0,c4c <board_init_r+0x3ec>
     c30:	24020000 	li	v0,0
     c34:	8f990000 	lw	t9,0(gp)
     c38:	02002021 	move	a0,s0
     c3c:	27a50048 	addiu	a1,sp,72
     c40:	0320f809 	jalr	t9
     c44:	24060010 	li	a2,16
     c48:	8fbc0018 	lw	gp,24(sp)
     c4c:	12000005 	beqz	s0,c64 <board_init_r+0x404>
     c50:	a2420008 	sb	v0,8(s2)
     c54:	8fa30048 	lw	v1,72(sp)
     c58:	80620000 	lb	v0,0(v1)
     c5c:	0002102b 	sltu	v0,zero,v0
     c60:	00628021 	addu	s0,v1,v0
     c64:	26310001 	addiu	s1,s1,1
     c68:	2a220006 	slti	v0,s1,6
     c6c:	1440ffee 	bnez	v0,c28 <board_init_r+0x3c8>
     c70:	8f990000 	lw	t9,0(gp)
     c74:	8f840000 	lw	a0,0(gp)
     c78:	0320f809 	jalr	t9
     c7c:	24840000 	addiu	a0,a0,0
     c80:	8fbc0018 	lw	gp,24(sp)
     c84:	8f990000 	lw	t9,0(gp)
     c88:	0320f809 	jalr	t9
     c8c:	ae620004 	sw	v0,4(s3)
     c90:	8fbc0018 	lw	gp,24(sp)
     c94:	8f990000 	lw	t9,0(gp)
     c98:	0320f809 	jalr	t9
     c9c:	00000000 	nop
     ca0:	8fbc0018 	lw	gp,24(sp)
     ca4:	8f990000 	lw	t9,0(gp)
     ca8:	0320f809 	jalr	t9
     cac:	00000000 	nop
     cb0:	8fbc0018 	lw	gp,24(sp)
     cb4:	8f840000 	lw	a0,0(gp)
     cb8:	8f990000 	lw	t9,0(gp)
     cbc:	0320f809 	jalr	t9
     cc0:	24840000 	addiu	a0,a0,0
     cc4:	10400009 	beqz	v0,cec <board_init_r+0x48c>
     cc8:	8fbc0018 	lw	gp,24(sp)
     ccc:	8f990000 	lw	t9,0(gp)
     cd0:	00402021 	move	a0,v0
     cd4:	00002821 	move	a1,zero
     cd8:	0320f809 	jalr	t9
     cdc:	24060010 	li	a2,16
     ce0:	8fbc0018 	lw	gp,24(sp)
     ce4:	8f830000 	lw	v1,0(gp)
     ce8:	ac620000 	sw	v0,0(v1)
     cec:	8f840000 	lw	a0,0(gp)
     cf0:	8f990000 	lw	t9,0(gp)
     cf4:	0320f809 	jalr	t9
     cf8:	24840000 	addiu	a0,a0,0
     cfc:	10400007 	beqz	v0,d1c <board_init_r+0x4bc>
     d00:	8fbc0018 	lw	gp,24(sp)
     d04:	8f990000 	lw	t9,0(gp)
     d08:	8f840000 	lw	a0,0(gp)
     d0c:	00402821 	move	a1,v0
     d10:	0320f809 	jalr	t9
     d14:	24060080 	li	a2,128
     d18:	8fbc0018 	lw	gp,24(sp)
     d1c:	8f970000 	lw	s7,0(gp)
     d20:	8f990000 	lw	t9,0(gp)
     d24:	3c02b000 	lui	v0,0xb000
     d28:	34420010 	ori	v0,v0,0x10
     d2c:	26e40000 	addiu	a0,s7,0
     d30:	0320f809 	jalr	t9
     d34:	8c500000 	lw	s0,0(v0)
     d38:	8fbc0018 	lw	gp,24(sp)
     d3c:	8f840000 	lw	a0,0(gp)
     d40:	8f850000 	lw	a1,0(gp)
     d44:	8f990000 	lw	t9,0(gp)
     d48:	24840000 	addiu	a0,a0,0
     d4c:	0320f809 	jalr	t9
     d50:	24a50000 	addiu	a1,a1,0
     d54:	8fbc0018 	lw	gp,24(sp)
     d58:	8f840000 	lw	a0,0(gp)
     d5c:	8f990000 	lw	t9,0(gp)
     d60:	0320f809 	jalr	t9
     d64:	24840000 	addiu	a0,a0,0
     d68:	8fbc0018 	lw	gp,24(sp)
     d6c:	8f840000 	lw	a0,0(gp)
     d70:	8f850000 	lw	a1,0(gp)
     d74:	8f860000 	lw	a2,0(gp)
     d78:	8f870000 	lw	a3,0(gp)
     d7c:	8f990000 	lw	t9,0(gp)
     d80:	24840000 	addiu	a0,a0,0
     d84:	24a50000 	addiu	a1,a1,0
     d88:	24c60000 	addiu	a2,a2,0
     d8c:	0320f809 	jalr	t9
     d90:	24e70000 	addiu	a3,a3,0
     d94:	00101483 	sra	v0,s0,0x12
     d98:	30420001 	andi	v0,v0,0x1
     d9c:	10400017 	beqz	v0,dfc <board_init_r+0x59c>
     da0:	8fbc0018 	lw	gp,24(sp)
     da4:	8f840000 	lw	a0,0(gp)
     da8:	8f990000 	lw	t9,0(gp)
     dac:	0320f809 	jalr	t9
     db0:	24840000 	addiu	a0,a0,0
     db4:	8fbc0018 	lw	gp,24(sp)
     db8:	24050100 	li	a1,256
     dbc:	8f840000 	lw	a0,0(gp)
     dc0:	8f860000 	lw	a2,0(gp)
     dc4:	8f990000 	lw	t9,0(gp)
     dc8:	24840000 	addiu	a0,a0,0
     dcc:	0320f809 	jalr	t9
     dd0:	24c60000 	addiu	a2,a2,0
     dd4:	8fbc0018 	lw	gp,24(sp)
     dd8:	24050010 	li	a1,16
     ddc:	8f840000 	lw	a0,0(gp)
     de0:	8f990000 	lw	t9,0(gp)
     de4:	0320f809 	jalr	t9
     de8:	24840000 	addiu	a0,a0,0
     dec:	8fbc0018 	lw	gp,24(sp)
     df0:	24050020 	li	a1,32
     df4:	10000052 	b	f40 <board_init_r+0x6e0>
     df8:	8f990000 	lw	t9,0(gp)
     dfc:	00101303 	sra	v0,s0,0xc
     e00:	30430007 	andi	v1,v0,0x7
     e04:	24020004 	li	v0,4
     e08:	1062000c 	beq	v1,v0,e3c <board_init_r+0x5dc>
     e0c:	24110200 	li	s1,512
     e10:	24020003 	li	v0,3
     e14:	10620009 	beq	v1,v0,e3c <board_init_r+0x5dc>
     e18:	24110100 	li	s1,256
     e1c:	24020002 	li	v0,2
     e20:	10620006 	beq	v1,v0,e3c <board_init_r+0x5dc>
     e24:	24110080 	li	s1,128
     e28:	24020001 	li	v0,1
     e2c:	10620003 	beq	v1,v0,e3c <board_init_r+0x5dc>
     e30:	24110040 	li	s1,64
     e34:	24110010 	li	s1,16
     e38:	0003880b 	movn	s1,zero,v1
     e3c:	00101c43 	sra	v1,s0,0x11
     e40:	001013c3 	sra	v0,s0,0xf
     e44:	30730001 	andi	s3,v1,0x1
     e48:	24030020 	li	v1,32
     e4c:	30420001 	andi	v0,v0,0x1
     e50:	24050010 	li	a1,16
     e54:	00609021 	move	s2,v1
     e58:	00a2900a 	movz	s2,a1,v0
     e5c:	12600006 	beqz	s3,e78 <board_init_r+0x618>
     e60:	00101283 	sra	v0,s0,0xa
     e64:	30430001 	andi	v1,v0,0x1
     e68:	00a08021 	move	s0,a1
     e6c:	24020008 	li	v0,8
     e70:	10000004 	b	e84 <board_init_r+0x624>
     e74:	0043800a 	movz	s0,v0,v1
     e78:	30420001 	andi	v0,v0,0x1
     e7c:	00608021 	move	s0,v1
     e80:	00a2800a 	movz	s0,a1,v0
     e84:	16000002 	bnez	s0,e90 <board_init_r+0x630>
     e88:	0250001a 	div	zero,s2,s0
     e8c:	0007000d 	break	0x7
     e90:	8f850000 	lw	a1,0(gp)
     e94:	8f840000 	lw	a0,0(gp)
     e98:	8f990000 	lw	t9,0(gp)
     e9c:	24a50000 	addiu	a1,a1,0
     ea0:	24840000 	addiu	a0,a0,0
     ea4:	00001012 	mflo	v0
     ea8:	72221002 	mul	v0,s1,v0
     eac:	24460007 	addiu	a2,v0,7
     eb0:	28430000 	slti	v1,v0,0
     eb4:	00c3100b 	movn	v0,a2,v1
     eb8:	0320f809 	jalr	t9
     ebc:	0002a8c3 	sra	s5,v0,0x3
     ec0:	12600004 	beqz	s3,ed4 <board_init_r+0x674>
     ec4:	8fbc0018 	lw	gp,24(sp)
     ec8:	8f820000 	lw	v0,0(gp)
     ecc:	10000003 	b	edc <board_init_r+0x67c>
     ed0:	24450000 	addiu	a1,v0,0
     ed4:	8f820000 	lw	v0,0(gp)
     ed8:	24450000 	addiu	a1,v0,0
     edc:	8f840000 	lw	a0,0(gp)
     ee0:	8f990000 	lw	t9,0(gp)
     ee4:	0320f809 	jalr	t9
     ee8:	24840000 	addiu	a0,a0,0
     eec:	8fbc0018 	lw	gp,24(sp)
     ef0:	02202821 	move	a1,s1
     ef4:	8f840000 	lw	a0,0(gp)
     ef8:	8f990000 	lw	t9,0(gp)
     efc:	0320f809 	jalr	t9
     f00:	24840000 	addiu	a0,a0,0
     f04:	8fbc0018 	lw	gp,24(sp)
     f08:	02002821 	move	a1,s0
     f0c:	8f840000 	lw	a0,0(gp)
     f10:	8f990000 	lw	t9,0(gp)
     f14:	0320f809 	jalr	t9
     f18:	24840000 	addiu	a0,a0,0
     f1c:	8fbc0018 	lw	gp,24(sp)
     f20:	02402821 	move	a1,s2
     f24:	8f840000 	lw	a0,0(gp)
     f28:	8f990000 	lw	t9,0(gp)
     f2c:	0320f809 	jalr	t9
     f30:	24840000 	addiu	a0,a0,0
     f34:	8fbc0018 	lw	gp,24(sp)
     f38:	02a02821 	move	a1,s5
     f3c:	8f990000 	lw	t9,0(gp)
     f40:	8f840000 	lw	a0,0(gp)
     f44:	0320f809 	jalr	t9
     f48:	24840000 	addiu	a0,a0,0
     f4c:	8fbc0018 	lw	gp,24(sp)
     f50:	8f900000 	lw	s0,0(gp)
     f54:	8f850000 	lw	a1,0(gp)
     f58:	8f990000 	lw	t9,0(gp)
     f5c:	26040000 	addiu	a0,s0,0
     f60:	0320f809 	jalr	t9
     f64:	24a50000 	addiu	a1,a1,0
     f68:	8fbc0018 	lw	gp,24(sp)
     f6c:	26040000 	addiu	a0,s0,0
     f70:	8f850000 	lw	a1,0(gp)
     f74:	8f990000 	lw	t9,0(gp)
     f78:	0320f809 	jalr	t9
     f7c:	24a50000 	addiu	a1,a1,0
     f80:	8fbc0018 	lw	gp,24(sp)
     f84:	8f990000 	lw	t9,0(gp)
     f88:	0320f809 	jalr	t9
     f8c:	26e40000 	addiu	a0,s7,0
     f90:	8fbc0018 	lw	gp,24(sp)
     f94:	40108001 	mfc0	s0,c0_config1
     f98:	001014c2 	srl	v0,s0,0x13
     f9c:	30430007 	andi	v1,v0,0x7
     fa0:	10600003 	beqz	v1,fb0 <board_init_r+0x750>
     fa4:	00004021 	move	t0,zero
     fa8:	24020002 	li	v0,2
     fac:	00624004 	sllv	t0,v0,v1
     fb0:	00101582 	srl	v0,s0,0x16
     fb4:	00103402 	srl	a2,s0,0x10
     fb8:	30420007 	andi	v0,v0,0x7
     fbc:	30c60007 	andi	a2,a2,0x7
     fc0:	24050040 	li	a1,64
     fc4:	00452804 	sllv	a1,a1,v0
     fc8:	24c60001 	addiu	a2,a2,1
     fcc:	70a61002 	mul	v0,a1,a2
     fd0:	8f840000 	lw	a0,0(gp)
     fd4:	8f990000 	lw	t9,0(gp)
     fd8:	01003821 	move	a3,t0
     fdc:	24840000 	addiu	a0,a0,0
     fe0:	70481002 	mul	v0,v0,t0
     fe4:	0320f809 	jalr	t9
     fe8:	afa20010 	sw	v0,16(sp)
     fec:	00101282 	srl	v0,s0,0xa
     ff0:	30430007 	andi	v1,v0,0x7
     ff4:	8fbc0018 	lw	gp,24(sp)
     ff8:	10600003 	beqz	v1,1008 <board_init_r+0x7a8>
     ffc:	00004021 	move	t0,zero
    1000:	24020002 	li	v0,2
    1004:	00624004 	sllv	t0,v0,v1
    1008:	001031c2 	srl	a2,s0,0x7
    100c:	00101342 	srl	v0,s0,0xd
    1010:	30420007 	andi	v0,v0,0x7
    1014:	30c60007 	andi	a2,a2,0x7
    1018:	24050040 	li	a1,64
    101c:	24c60001 	addiu	a2,a2,1
    1020:	00452804 	sllv	a1,a1,v0
    1024:	70a61002 	mul	v0,a1,a2
    1028:	8f840000 	lw	a0,0(gp)
    102c:	8f990000 	lw	t9,0(gp)
    1030:	01003821 	move	a3,t0
    1034:	24840000 	addiu	a0,a0,0
    1038:	24100005 	li	s0,5
    103c:	70481002 	mul	v0,v0,t0
    1040:	0320f809 	jalr	t9
    1044:	afa20010 	sw	v0,16(sp)
    1048:	8fbc0018 	lw	gp,24(sp)
    104c:	8f820000 	lw	v0,0(gp)
    1050:	8f840000 	lw	a0,0(gp)
    1054:	8f990000 	lw	t9,0(gp)
    1058:	8c450000 	lw	a1,0(v0)
    105c:	3c02431b 	lui	v0,0x431b
    1060:	3442de83 	ori	v0,v0,0xde83
    1064:	00a20019 	multu	a1,v0
    1068:	24840000 	addiu	a0,a0,0
    106c:	00002810 	mfhi	a1
    1070:	0320f809 	jalr	t9
    1074:	00052c82 	srl	a1,a1,0x12
    1078:	8fbc0018 	lw	gp,24(sp)
    107c:	8f450010 	lw	a1,16(k0)
    1080:	8f840000 	lw	a0,0(gp)
    1084:	8f990000 	lw	t9,0(gp)
    1088:	00052d02 	srl	a1,a1,0x14
    108c:	0320f809 	jalr	t9
    1090:	24840000 	addiu	a0,a0,0
    1094:	8fbc0018 	lw	gp,24(sp)
    1098:	8f990000 	lw	t9,0(gp)
    109c:	0320f809 	jalr	t9
    10a0:	00000000 	nop
    10a4:	8fbc0018 	lw	gp,24(sp)
    10a8:	8f990000 	lw	t9,0(gp)
    10ac:	0320f809 	jalr	t9
    10b0:	00000000 	nop
    10b4:	8fbc0018 	lw	gp,24(sp)
    10b8:	8f840000 	lw	a0,0(gp)
    10bc:	8f990000 	lw	t9,0(gp)
    10c0:	0320f809 	jalr	t9
    10c4:	24840000 	addiu	a0,a0,0
    10c8:	10400008 	beqz	v0,10ec <board_init_r+0x88c>
    10cc:	8fbc0018 	lw	gp,24(sp)
    10d0:	8f990000 	lw	t9,0(gp)
    10d4:	00402021 	move	a0,v0
    10d8:	00002821 	move	a1,zero
    10dc:	0320f809 	jalr	t9
    10e0:	2406000a 	li	a2,10
    10e4:	8fbc0018 	lw	gp,24(sp)
    10e8:	00408021 	move	s0,v0
    10ec:	8f990000 	lw	t9,0(gp)
    10f0:	0320f809 	jalr	t9
    10f4:	00000000 	nop
    10f8:	1a00002c 	blez	s0,11ac <board_init_r+0x94c>
    10fc:	8fbc0018 	lw	gp,24(sp)
    1100:	2610ffff 	addiu	s0,s0,-1
    1104:	00008821 	move	s1,zero
    1108:	8f990000 	lw	t9,0(gp)
    110c:	0320f809 	jalr	t9
    1110:	00000000 	nop
    1114:	10400017 	beqz	v0,1174 <board_init_r+0x914>
    1118:	8fbc0018 	lw	gp,24(sp)
    111c:	8f990000 	lw	t9,0(gp)
    1120:	0320f809 	jalr	t9
    1124:	00008021 	move	s0,zero
    1128:	305600ff 	andi	s6,v0,0xff
    112c:	26c2ffd0 	addiu	v0,s6,-48
    1130:	2c420006 	sltiu	v0,v0,6
    1134:	14400008 	bnez	v0,1158 <board_init_r+0x8f8>
    1138:	8fbc0018 	lw	gp,24(sp)
    113c:	24020037 	li	v0,55
    1140:	12c20005 	beq	s6,v0,1158 <board_init_r+0x8f8>
    1144:	24020038 	li	v0,56
    1148:	12c20003 	beq	s6,v0,1158 <board_init_r+0x8f8>
    114c:	3ac30039 	xori	v1,s6,0x39
    1150:	24020033 	li	v0,51
    1154:	0043b00b 	movn	s6,v0,v1
    1158:	8f840000 	lw	a0,0(gp)
    115c:	8f990000 	lw	t9,0(gp)
    1160:	02c02821 	move	a1,s6
    1164:	0320f809 	jalr	t9
    1168:	24840000 	addiu	a0,a0,0
    116c:	10000008 	b	1190 <board_init_r+0x930>
    1170:	8fbc0018 	lw	gp,24(sp)
    1174:	8f990000 	lw	t9,0(gp)
    1178:	26310001 	addiu	s1,s1,1
    117c:	0320f809 	jalr	t9
    1180:	24042710 	li	a0,10000
    1184:	2a220064 	slti	v0,s1,100
    1188:	1440ffdf 	bnez	v0,1108 <board_init_r+0x8a8>
    118c:	8fbc0018 	lw	gp,24(sp)
    1190:	8f840000 	lw	a0,0(gp)
    1194:	8f990000 	lw	t9,0(gp)
    1198:	02002821 	move	a1,s0
    119c:	0320f809 	jalr	t9
    11a0:	24840000 	addiu	a0,a0,0
    11a4:	1000ffd4 	b	10f8 <board_init_r+0x898>
    11a8:	00000000 	nop
    11ac:	8f990000 	lw	t9,0(gp)
    11b0:	0320f809 	jalr	t9
    11b4:	2404000a 	li	a0,10
    11b8:	24020033 	li	v0,51
    11bc:	16c20015 	bne	s6,v0,1214 <board_init_r+0x9b4>
    11c0:	8fbc0018 	lw	gp,24(sp)
    11c4:	8f850000 	lw	a1,0(gp)
    11c8:	8f990000 	lw	t9,0(gp)
    11cc:	3c06bc05 	lui	a2,0xbc05
    11d0:	24a50000 	addiu	a1,a1,0
    11d4:	0320f809 	jalr	t9
    11d8:	27a40020 	addiu	a0,sp,32
    11dc:	8fbc0018 	lw	gp,24(sp)
    11e0:	27a20020 	addiu	v0,sp,32
    11e4:	afa20034 	sw	v0,52(sp)
    11e8:	8f840000 	lw	a0,0(gp)
    11ec:	8f990000 	lw	t9,0(gp)
    11f0:	0320f809 	jalr	t9
    11f4:	24840000 	addiu	a0,a0,0
    11f8:	8fbc0018 	lw	gp,24(sp)
    11fc:	02802021 	move	a0,s4
    1200:	00002821 	move	a1,zero
    1204:	8f990000 	lw	t9,0(gp)
    1208:	24060002 	li	a2,2
    120c:	10000156 	b	1768 <board_init_r+0xf08>
    1210:	27a70030 	addiu	a3,sp,48
    1214:	8f820000 	lw	v0,0(gp)
    1218:	8f990000 	lw	t9,0(gp)
    121c:	00002821 	move	a1,zero
    1220:	24420010 	addiu	v0,v0,16
    1224:	00402021 	move	a0,v0
    1228:	24060080 	li	a2,128
    122c:	0320f809 	jalr	t9
    1230:	afa20040 	sw	v0,64(sp)
    1234:	8fbc0018 	lw	gp,24(sp)
    1238:	8f440000 	lw	a0,0(k0)
    123c:	8f990000 	lw	t9,0(gp)
    1240:	0320f809 	jalr	t9
    1244:	24120003 	li	s2,3
    1248:	26c3ffd0 	addiu	v1,s6,-48
    124c:	2c62000a 	sltiu	v0,v1,10
    1250:	10400133 	beqz	v0,1720 <board_init_r+0xec0>
    1254:	8fbc0018 	lw	gp,24(sp)
    1258:	00031080 	sll	v0,v1,0x2
    125c:	8f830000 	lw	v1,0(gp)
    1260:	24630028 	addiu	v1,v1,40
    1264:	00431021 	addu	v0,v0,v1
    1268:	8c420000 	lw	v0,0(v0)
    126c:	005c1021 	addu	v0,v0,gp
    1270:	00400008 	jr	v0
    1274:	8f990000 	lw	t9,0(gp)
    1278:	8f840000 	lw	a0,0(gp)
    127c:	24050001 	li	a1,1
    1280:	27b00038 	addiu	s0,sp,56
    1284:	0320f809 	jalr	t9
    1288:	24840000 	addiu	a0,a0,0
    128c:	8fbc0018 	lw	gp,24(sp)
    1290:	02002821 	move	a1,s0
    1294:	24040001 	li	a0,1
    1298:	10000099 	b	1500 <board_init_r+0xca0>
    129c:	8f990000 	lw	t9,0(gp)
    12a0:	8f840000 	lw	a0,0(gp)
    12a4:	24050002 	li	a1,2
    12a8:	0320f809 	jalr	t9
    12ac:	24840000 	addiu	a0,a0,0
    12b0:	8fbc0018 	lw	gp,24(sp)
    12b4:	8f840000 	lw	a0,0(gp)
    12b8:	8f990000 	lw	t9,0(gp)
    12bc:	0320f809 	jalr	t9
    12c0:	24840000 	addiu	a0,a0,0
    12c4:	8fbc0018 	lw	gp,24(sp)
    12c8:	8f990000 	lw	t9,0(gp)
    12cc:	0320f809 	jalr	t9
    12d0:	00000000 	nop
    12d4:	304300ff 	andi	v1,v0,0xff
    12d8:	24020079 	li	v0,121
    12dc:	10620004 	beq	v1,v0,12f0 <board_init_r+0xa90>
    12e0:	8fbc0018 	lw	gp,24(sp)
    12e4:	24020059 	li	v0,89
    12e8:	146200a9 	bne	v1,v0,1590 <board_init_r+0xd30>
    12ec:	00000000 	nop
    12f0:	8f990000 	lw	t9,0(gp)
    12f4:	27b00038 	addiu	s0,sp,56
    12f8:	02002821 	move	a1,s0
    12fc:	0320f809 	jalr	t9
    1300:	24040002 	li	a0,2
    1304:	8fbc0018 	lw	gp,24(sp)
    1308:	24120002 	li	s2,2
    130c:	8f840000 	lw	a0,0(gp)
    1310:	8f850000 	lw	a1,0(gp)
    1314:	8f990000 	lw	t9,0(gp)
    1318:	24840000 	addiu	a0,a0,0
    131c:	0320f809 	jalr	t9
    1320:	24a50000 	addiu	a1,a1,0
    1324:	8fbc0018 	lw	gp,24(sp)
    1328:	02003821 	move	a3,s0
    132c:	02802021 	move	a0,s4
    1330:	8f990000 	lw	t9,0(gp)
    1334:	00002821 	move	a1,zero
    1338:	0320f809 	jalr	t9
    133c:	24060003 	li	a2,3
    1340:	8fbc0018 	lw	gp,24(sp)
    1344:	8fa4003c 	lw	a0,60(sp)
    1348:	00002821 	move	a1,zero
    134c:	8f990000 	lw	t9,0(gp)
    1350:	0320f809 	jalr	t9
    1354:	24060010 	li	a2,16
    1358:	8fbc0018 	lw	gp,24(sp)
    135c:	00402021 	move	a0,v0
    1360:	3c050005 	lui	a1,0x5
    1364:	8f820000 	lw	v0,0(gp)
    1368:	8f990000 	lw	t9,0(gp)
    136c:	0320f809 	jalr	t9
    1370:	8c460000 	lw	a2,0(v0)
    1374:	8fbc0018 	lw	gp,24(sp)
    1378:	27a40020 	addiu	a0,sp,32
    137c:	3c06bc05 	lui	a2,0xbc05
    1380:	8f850000 	lw	a1,0(gp)
    1384:	8f990000 	lw	t9,0(gp)
    1388:	0320f809 	jalr	t9
    138c:	24a50000 	addiu	a1,a1,0
    1390:	8fbc0018 	lw	gp,24(sp)
    1394:	27a20020 	addiu	v0,sp,32
    1398:	02003821 	move	a3,s0
    139c:	8f990000 	lw	t9,0(gp)
    13a0:	02802021 	move	a0,s4
    13a4:	00002821 	move	a1,zero
    13a8:	24060002 	li	a2,2
    13ac:	100000e6 	b	1748 <board_init_r+0xee8>
    13b0:	afa2003c 	sw	v0,60(sp)
    13b4:	8f840000 	lw	a0,0(gp)
    13b8:	24050004 	li	a1,4
    13bc:	0320f809 	jalr	t9
    13c0:	24840000 	addiu	a0,a0,0
    13c4:	8fbc0018 	lw	gp,24(sp)
    13c8:	8f840000 	lw	a0,0(gp)
    13cc:	8f990000 	lw	t9,0(gp)
    13d0:	8f850000 	lw	a1,0(gp)
    13d4:	0320f809 	jalr	t9
    13d8:	24840000 	addiu	a0,a0,0
    13dc:	8fbc0018 	lw	gp,24(sp)
    13e0:	8f990000 	lw	t9,0(gp)
    13e4:	0320f809 	jalr	t9
    13e8:	00000000 	nop
    13ec:	1000fffc 	b	13e0 <board_init_r+0xb80>
    13f0:	8fbc0018 	lw	gp,24(sp)
    13f4:	8f840000 	lw	a0,0(gp)
    13f8:	24050007 	li	a1,7
    13fc:	27b10038 	addiu	s1,sp,56
    1400:	0320f809 	jalr	t9
    1404:	24840000 	addiu	a0,a0,0
    1408:	8fbc0018 	lw	gp,24(sp)
    140c:	24120001 	li	s2,1
    1410:	8f840000 	lw	a0,0(gp)
    1414:	8f850000 	lw	a1,0(gp)
    1418:	8f990000 	lw	t9,0(gp)
    141c:	24840000 	addiu	a0,a0,0
    1420:	0320f809 	jalr	t9
    1424:	24a50000 	addiu	a1,a1,0
    1428:	8fbc0018 	lw	gp,24(sp)
    142c:	00002821 	move	a1,zero
    1430:	24060001 	li	a2,1
    1434:	8f990000 	lw	t9,0(gp)
    1438:	02203821 	move	a3,s1
    143c:	0320f809 	jalr	t9
    1440:	02802021 	move	a0,s4
    1444:	8fbc0018 	lw	gp,24(sp)
    1448:	00408021 	move	s0,v0
    144c:	8f840000 	lw	a0,0(gp)
    1450:	8f990000 	lw	t9,0(gp)
    1454:	0320f809 	jalr	t9
    1458:	24840000 	addiu	a0,a0,0
    145c:	8fbc0018 	lw	gp,24(sp)
    1460:	24060010 	li	a2,16
    1464:	00402021 	move	a0,v0
    1468:	8f990000 	lw	t9,0(gp)
    146c:	0320f809 	jalr	t9
    1470:	00002821 	move	a1,zero
    1474:	8fbc0018 	lw	gp,24(sp)
    1478:	00403021 	move	a2,v0
    147c:	3c020003 	lui	v0,0x3
    1480:	8f830000 	lw	v1,0(gp)
    1484:	0046102b 	sltu	v0,v0,a2
    1488:	14400003 	bnez	v0,1498 <board_init_r+0xc38>
    148c:	ac660000 	sw	a2,0(v1)
    1490:	16120007 	bne	s0,s2,14b0 <board_init_r+0xc50>
    1494:	00000000 	nop
    1498:	8f840000 	lw	a0,0(gp)
    149c:	8f990000 	lw	t9,0(gp)
    14a0:	0320f809 	jalr	t9
    14a4:	24840000 	addiu	a0,a0,0
    14a8:	10000006 	b	14c4 <board_init_r+0xc64>
    14ac:	8fbc0018 	lw	gp,24(sp)
    14b0:	8f990000 	lw	t9,0(gp)
    14b4:	3c048010 	lui	a0,0x8010
    14b8:	0320f809 	jalr	t9
    14bc:	00002821 	move	a1,zero
    14c0:	8fbc0018 	lw	gp,24(sp)
    14c4:	02203821 	move	a3,s1
    14c8:	02802021 	move	a0,s4
    14cc:	8f990000 	lw	t9,0(gp)
    14d0:	00002821 	move	a1,zero
    14d4:	1000009c 	b	1748 <board_init_r+0xee8>
    14d8:	24060001 	li	a2,1
    14dc:	8f840000 	lw	a0,0(gp)
    14e0:	24050008 	li	a1,8
    14e4:	27b00038 	addiu	s0,sp,56
    14e8:	0320f809 	jalr	t9
    14ec:	24840000 	addiu	a0,a0,0
    14f0:	8fbc0018 	lw	gp,24(sp)
    14f4:	02002821 	move	a1,s0
    14f8:	24040008 	li	a0,8
    14fc:	8f990000 	lw	t9,0(gp)
    1500:	0320f809 	jalr	t9
    1504:	24120003 	li	s2,3
    1508:	8fbc0018 	lw	gp,24(sp)
    150c:	8f840000 	lw	a0,0(gp)
    1510:	8f850000 	lw	a1,0(gp)
    1514:	8f990000 	lw	t9,0(gp)
    1518:	24840000 	addiu	a0,a0,0
    151c:	0320f809 	jalr	t9
    1520:	24a50000 	addiu	a1,a1,0
    1524:	8fbc0018 	lw	gp,24(sp)
    1528:	02802021 	move	a0,s4
    152c:	02003821 	move	a3,s0
    1530:	8f990000 	lw	t9,0(gp)
    1534:	00002821 	move	a1,zero
    1538:	10000083 	b	1748 <board_init_r+0xee8>
    153c:	24060003 	li	a2,3
    1540:	8f840000 	lw	a0,0(gp)
    1544:	24050009 	li	a1,9
    1548:	0320f809 	jalr	t9
    154c:	24840000 	addiu	a0,a0,0
    1550:	8fbc0018 	lw	gp,24(sp)
    1554:	8f840000 	lw	a0,0(gp)
    1558:	8f990000 	lw	t9,0(gp)
    155c:	0320f809 	jalr	t9
    1560:	24840000 	addiu	a0,a0,0
    1564:	8fbc0018 	lw	gp,24(sp)
    1568:	8f990000 	lw	t9,0(gp)
    156c:	0320f809 	jalr	t9
    1570:	00000000 	nop
    1574:	304300ff 	andi	v1,v0,0xff
    1578:	24020079 	li	v0,121
    157c:	1062000a 	beq	v1,v0,15a8 <board_init_r+0xd48>
    1580:	8fbc0018 	lw	gp,24(sp)
    1584:	24020059 	li	v0,89
    1588:	10620008 	beq	v1,v0,15ac <board_init_r+0xd4c>
    158c:	8f990000 	lw	t9,0(gp)
    1590:	8f840000 	lw	a0,0(gp)
    1594:	8f990000 	lw	t9,0(gp)
    1598:	0320f809 	jalr	t9
    159c:	24840000 	addiu	a0,a0,0
    15a0:	1000006c 	b	1754 <board_init_r+0xef4>
    15a4:	8fbc0018 	lw	gp,24(sp)
    15a8:	8f990000 	lw	t9,0(gp)
    15ac:	27b00038 	addiu	s0,sp,56
    15b0:	24040009 	li	a0,9
    15b4:	0320f809 	jalr	t9
    15b8:	02002821 	move	a1,s0
    15bc:	8fbc0018 	lw	gp,24(sp)
    15c0:	24120003 	li	s2,3
    15c4:	8f840000 	lw	a0,0(gp)
    15c8:	8f850000 	lw	a1,0(gp)
    15cc:	8f990000 	lw	t9,0(gp)
    15d0:	24840000 	addiu	a0,a0,0
    15d4:	0320f809 	jalr	t9
    15d8:	24a50000 	addiu	a1,a1,0
    15dc:	8fbc0018 	lw	gp,24(sp)
    15e0:	00002821 	move	a1,zero
    15e4:	02802021 	move	a0,s4
    15e8:	8f910000 	lw	s1,0(gp)
    15ec:	8f990000 	lw	t9,0(gp)
    15f0:	24060003 	li	a2,3
    15f4:	0320f809 	jalr	t9
    15f8:	02003821 	move	a3,s0
    15fc:	8e250000 	lw	a1,0(s1)
    1600:	3c020003 	lui	v0,0x3
    1604:	0045102b 	sltu	v0,v0,a1
    1608:	10400007 	beqz	v0,1628 <board_init_r+0xdc8>
    160c:	8fbc0018 	lw	gp,24(sp)
    1610:	8f840000 	lw	a0,0(gp)
    1614:	8f990000 	lw	t9,0(gp)
    1618:	0320f809 	jalr	t9
    161c:	24840000 	addiu	a0,a0,0
    1620:	1000000d 	b	1658 <board_init_r+0xdf8>
    1624:	8fbc0018 	lw	gp,24(sp)
    1628:	8f990000 	lw	t9,0(gp)
    162c:	8fa4003c 	lw	a0,60(sp)
    1630:	00002821 	move	a1,zero
    1634:	0320f809 	jalr	t9
    1638:	24060010 	li	a2,16
    163c:	8fbc0018 	lw	gp,24(sp)
    1640:	8e260000 	lw	a2,0(s1)
    1644:	00402021 	move	a0,v0
    1648:	8f990000 	lw	t9,0(gp)
    164c:	0320f809 	jalr	t9
    1650:	00002821 	move	a1,zero
    1654:	8fbc0018 	lw	gp,24(sp)
    1658:	02003821 	move	a3,s0
    165c:	02802021 	move	a0,s4
    1660:	8f990000 	lw	t9,0(gp)
    1664:	00002821 	move	a1,zero
    1668:	10000037 	b	1748 <board_init_r+0xee8>
    166c:	24060003 	li	a2,3
    1670:	8f840000 	lw	a0,0(gp)
    1674:	00002821 	move	a1,zero
    1678:	27b00038 	addiu	s0,sp,56
    167c:	0320f809 	jalr	t9
    1680:	24840000 	addiu	a0,a0,0
    1684:	8fbc0018 	lw	gp,24(sp)
    1688:	24120001 	li	s2,1
    168c:	8f840000 	lw	a0,0(gp)
    1690:	8f850000 	lw	a1,0(gp)
    1694:	8f990000 	lw	t9,0(gp)
    1698:	24840000 	addiu	a0,a0,0
    169c:	0320f809 	jalr	t9
    16a0:	24a50000 	addiu	a1,a1,0
    16a4:	8fbc0018 	lw	gp,24(sp)
    16a8:	02003821 	move	a3,s0
    16ac:	00002821 	move	a1,zero
    16b0:	8f990000 	lw	t9,0(gp)
    16b4:	24060001 	li	a2,1
    16b8:	0320f809 	jalr	t9
    16bc:	02802021 	move	a0,s4
    16c0:	8fbc0018 	lw	gp,24(sp)
    16c4:	8f840000 	lw	a0,0(gp)
    16c8:	8f990000 	lw	t9,0(gp)
    16cc:	0320f809 	jalr	t9
    16d0:	24840000 	addiu	a0,a0,0
    16d4:	8fbc0018 	lw	gp,24(sp)
    16d8:	00402021 	move	a0,v0
    16dc:	00002821 	move	a1,zero
    16e0:	8f990000 	lw	t9,0(gp)
    16e4:	0320f809 	jalr	t9
    16e8:	24060010 	li	a2,16
    16ec:	8fbc0018 	lw	gp,24(sp)
    16f0:	3c048010 	lui	a0,0x8010
    16f4:	00403021 	move	a2,v0
    16f8:	8f830000 	lw	v1,0(gp)
    16fc:	8f990000 	lw	t9,0(gp)
    1700:	3c050005 	lui	a1,0x5
    1704:	0320f809 	jalr	t9
    1708:	ac620000 	sw	v0,0(v1)
    170c:	8fbc0018 	lw	gp,24(sp)
    1710:	02802021 	move	a0,s4
    1714:	02003821 	move	a3,s0
    1718:	1000ff6d 	b	14d0 <board_init_r+0xc70>
    171c:	8f990000 	lw	t9,0(gp)
    1720:	8f840000 	lw	a0,0(gp)
    1724:	8f990000 	lw	t9,0(gp)
    1728:	0320f809 	jalr	t9
    172c:	24840000 	addiu	a0,a0,0
    1730:	8fbc0018 	lw	gp,24(sp)
    1734:	02802021 	move	a0,s4
    1738:	00002821 	move	a1,zero
    173c:	8f990000 	lw	t9,0(gp)
    1740:	24060001 	li	a2,1
    1744:	27a70038 	addiu	a3,sp,56
    1748:	0320f809 	jalr	t9
    174c:	00000000 	nop
    1750:	8fbc0018 	lw	gp,24(sp)
    1754:	02802021 	move	a0,s4
    1758:	02403021 	move	a2,s2
    175c:	8f990000 	lw	t9,0(gp)
    1760:	00002821 	move	a1,zero
    1764:	27a70038 	addiu	a3,sp,56
    1768:	0320f809 	jalr	t9
    176c:	00000000 	nop
    1770:	8fbc0018 	lw	gp,24(sp)
    1774:	8fbf0070 	lw	ra,112(sp)
    1778:	8fb7006c 	lw	s7,108(sp)
    177c:	8fb60068 	lw	s6,104(sp)
    1780:	8fb50064 	lw	s5,100(sp)
    1784:	8fb40060 	lw	s4,96(sp)
    1788:	8fb3005c 	lw	s3,92(sp)
    178c:	8fb20058 	lw	s2,88(sp)
    1790:	8fb10054 	lw	s1,84(sp)
    1794:	8fb00050 	lw	s0,80(sp)
    1798:	03e00008 	jr	ra
    179c:	27bd0078 	addiu	sp,sp,120

000017a0 <hang>:
    17a0:	3c1c0000 	lui	gp,0x0
    17a4:	279c0000 	addiu	gp,gp,0
    17a8:	0399e021 	addu	gp,gp,t9
    17ac:	27bdffe0 	addiu	sp,sp,-32
    17b0:	afbf0018 	sw	ra,24(sp)
    17b4:	afbc0010 	sw	gp,16(sp)
    17b8:	8f840000 	lw	a0,0(gp)
    17bc:	8f990000 	lw	t9,0(gp)
    17c0:	0320f809 	jalr	t9
    17c4:	24840000 	addiu	a0,a0,0
    17c8:	1000ffff 	b	17c8 <hang+0x28>
    17cc:	00000000 	nop

000017d0 <rw_rf_reg>:
    17d0:	3c1c0000 	lui	gp,0x0
    17d4:	279c0000 	addiu	gp,gp,0
    17d8:	0399e021 	addu	gp,gp,t9
    17dc:	27bdffe0 	addiu	sp,sp,-32
    17e0:	afbf0018 	sw	ra,24(sp)
    17e4:	afbc0010 	sw	gp,16(sp)
    17e8:	00001821 	move	v1,zero
    17ec:	3c02b018 	lui	v0,0xb018
    17f0:	34490500 	ori	t1,v0,0x500
    17f4:	8d270000 	lw	a3,0(t1)
    17f8:	24630001 	addiu	v1,v1,1
    17fc:	00071442 	srl	v0,a3,0x11
    1800:	30420001 	andi	v0,v0,0x1
    1804:	10400006 	beqz	v0,1820 <rw_rf_reg+0x50>
    1808:	2c682711 	sltiu	t0,v1,10001
    180c:	1500fff7 	bnez	t0,17ec <rw_rf_reg+0x1c>
    1810:	8f990000 	lw	t9,0(gp)
    1814:	8f840000 	lw	a0,0(gp)
    1818:	10000021 	b	18a0 <rw_rf_reg+0xd0>
    181c:	24840000 	addiu	a0,a0,0
    1820:	90c20000 	lbu	v0,0(a2)
    1824:	30a3003f 	andi	v1,a1,0x3f
    1828:	00031a00 	sll	v1,v1,0x8
    182c:	00621825 	or	v1,v1,v0
    1830:	3c020002 	lui	v0,0x2
    1834:	10800003 	beqz	a0,1844 <rw_rf_reg+0x74>
    1838:	00623825 	or	a3,v1,v0
    183c:	3c020001 	lui	v0,0x1
    1840:	00e23825 	or	a3,a3,v0
    1844:	ad270000 	sw	a3,0(t1)
    1848:	00001821 	move	v1,zero
    184c:	3c02b018 	lui	v0,0xb018
    1850:	34480500 	ori	t0,v0,0x500
    1854:	8d070000 	lw	a3,0(t0)
    1858:	24630001 	addiu	v1,v1,1
    185c:	00071442 	srl	v0,a3,0x11
    1860:	30420001 	andi	v0,v0,0x1
    1864:	10400006 	beqz	v0,1880 <rw_rf_reg+0xb0>
    1868:	2c642711 	sltiu	a0,v1,10001
    186c:	1480fff7 	bnez	a0,184c <rw_rf_reg+0x7c>
    1870:	8f840000 	lw	a0,0(gp)
    1874:	8f990000 	lw	t9,0(gp)
    1878:	10000009 	b	18a0 <rw_rf_reg+0xd0>
    187c:	24840000 	addiu	a0,a0,0
    1880:	8d070000 	lw	a3,0(t0)
    1884:	30a3001f 	andi	v1,a1,0x1f
    1888:	30e21f00 	andi	v0,a3,0x1f00
    188c:	00021202 	srl	v0,v0,0x8
    1890:	10430008 	beq	v0,v1,18b4 <rw_rf_reg+0xe4>
    1894:	8f840000 	lw	a0,0(gp)
    1898:	8f990000 	lw	t9,0(gp)
    189c:	24840000 	addiu	a0,a0,0
    18a0:	0320f809 	jalr	t9
    18a4:	00000000 	nop
    18a8:	8fbc0010 	lw	gp,16(sp)
    18ac:	10000004 	b	18c0 <rw_rf_reg+0xf0>
    18b0:	2402ffff 	li	v0,-1
    18b4:	30e200ff 	andi	v0,a3,0xff
    18b8:	acc20000 	sw	v0,0(a2)
    18bc:	00001021 	move	v0,zero
    18c0:	8fbf0018 	lw	ra,24(sp)
    18c4:	03e00008 	jr	ra
    18c8:	27bd0020 	addiu	sp,sp,32

000018cc <do_rw_rf>:
    18cc:	3c1c0000 	lui	gp,0x0
    18d0:	279c0000 	addiu	gp,gp,0
    18d4:	0399e021 	addu	gp,gp,t9
    18d8:	27bdffd0 	addiu	sp,sp,-48
    18dc:	afbf0028 	sw	ra,40(sp)
    18e0:	afb10024 	sw	s1,36(sp)
    18e4:	afb00020 	sw	s0,32(sp)
    18e8:	afbc0010 	sw	gp,16(sp)
    18ec:	8ce50004 	lw	a1,4(a3)
    18f0:	24020072 	li	v0,114
    18f4:	80a30000 	lb	v1,0(a1)
    18f8:	10620004 	beq	v1,v0,190c <do_rw_rf+0x40>
    18fc:	00e08021 	move	s0,a3
    1900:	24020052 	li	v0,82
    1904:	1462000f 	bne	v1,v0,1944 <do_rw_rf+0x78>
    1908:	24020077 	li	v0,119
    190c:	24020003 	li	v0,3
    1910:	14c2000b 	bne	a2,v0,1940 <do_rw_rf+0x74>
    1914:	24020077 	li	v0,119
    1918:	8e040008 	lw	a0,8(s0)
    191c:	8f990000 	lw	t9,0(gp)
    1920:	00002821 	move	a1,zero
    1924:	0320f809 	jalr	t9
    1928:	2406000a 	li	a2,10
    192c:	8fbc0010 	lw	gp,16(sp)
    1930:	00408821 	move	s1,v0
    1934:	00008021 	move	s0,zero
    1938:	10000020 	b	19bc <do_rw_rf+0xf0>
    193c:	afa00018 	sw	zero,24(sp)
    1940:	80a30000 	lb	v1,0(a1)
    1944:	10620003 	beq	v1,v0,1954 <do_rw_rf+0x88>
    1948:	24020057 	li	v0,87
    194c:	14620013 	bne	v1,v0,199c <do_rw_rf+0xd0>
    1950:	00000000 	nop
    1954:	24020004 	li	v0,4
    1958:	14c20010 	bne	a2,v0,199c <do_rw_rf+0xd0>
    195c:	8f990000 	lw	t9,0(gp)
    1960:	8e040008 	lw	a0,8(s0)
    1964:	00002821 	move	a1,zero
    1968:	0320f809 	jalr	t9
    196c:	2406000a 	li	a2,10
    1970:	8fbc0010 	lw	gp,16(sp)
    1974:	8e04000c 	lw	a0,12(s0)
    1978:	00002821 	move	a1,zero
    197c:	8f990000 	lw	t9,0(gp)
    1980:	24060010 	li	a2,16
    1984:	0320f809 	jalr	t9
    1988:	00408821 	move	s1,v0
    198c:	8fbc0010 	lw	gp,16(sp)
    1990:	24100001 	li	s0,1
    1994:	10000009 	b	19bc <do_rw_rf+0xf0>
    1998:	afa20018 	sw	v0,24(sp)
    199c:	8c850010 	lw	a1,16(a0)
    19a0:	8f840000 	lw	a0,0(gp)
    19a4:	8f990000 	lw	t9,0(gp)
    19a8:	0320f809 	jalr	t9
    19ac:	24840000 	addiu	a0,a0,0
    19b0:	8fbc0010 	lw	gp,16(sp)
    19b4:	10000010 	b	19f8 <do_rw_rf+0x12c>
    19b8:	24020001 	li	v0,1
    19bc:	8f990000 	lw	t9,0(gp)
    19c0:	02002021 	move	a0,s0
    19c4:	02202821 	move	a1,s1
    19c8:	0320f809 	jalr	t9
    19cc:	27a60018 	addiu	a2,sp,24
    19d0:	16000008 	bnez	s0,19f4 <do_rw_rf+0x128>
    19d4:	8fbc0010 	lw	gp,16(sp)
    19d8:	8f840000 	lw	a0,0(gp)
    19dc:	8f990000 	lw	t9,0(gp)
    19e0:	8fa60018 	lw	a2,24(sp)
    19e4:	24840000 	addiu	a0,a0,0
    19e8:	0320f809 	jalr	t9
    19ec:	02202821 	move	a1,s1
    19f0:	8fbc0010 	lw	gp,16(sp)
    19f4:	00001021 	move	v0,zero
    19f8:	8fbf0028 	lw	ra,40(sp)
    19fc:	8fb10024 	lw	s1,36(sp)
    1a00:	8fb00020 	lw	s0,32(sp)
    1a04:	03e00008 	jr	ra
    1a08:	27bd0030 	addiu	sp,sp,48
    1a0c:	00000000 	nop
