
board/rt2880/serial.o:     file format elf32-tradlittlemips

Disassembly of section .text:

00000000 <serial_setbrg>:
   0:	3c1c0000 	lui	gp,0x0
   4:	279c0000 	addiu	gp,gp,0
   8:	0399e021 	addu	gp,gp,t9
   c:	3c021000 	lui	v0,0x1000
  10:	34420300 	ori	v0,v0,0x300
  14:	8c420000 	lw	v0,0(v0)
  18:	00000000 	nop
  1c:	00021a42 	srl	v1,v0,0x9
  20:	00021202 	srl	v0,v0,0x8
  24:	30440001 	andi	a0,v0,0x1
  28:	30630002 	andi	v1,v1,0x2
  2c:	00832025 	or	a0,a0,v1
  30:	24020002 	li	v0,2
  34:	1082000f 	beq	a0,v0,74 <serial_setbrg+0x74>
  38:	28830003 	slti	v1,a0,3
  3c:	10600005 	beqz	v1,54 <serial_setbrg+0x54>
  40:	00000000 	nop
  44:	10800008 	beqz	a0,68 <serial_setbrg+0x68>
  48:	00000000 	nop
  4c:	10000011 	b	94 <serial_setbrg+0x94>
  50:	3c021000 	lui	v0,0x1000
  54:	24020003 	li	v0,3
  58:	10820009 	beq	a0,v0,80 <serial_setbrg+0x80>
  5c:	3c021000 	lui	v0,0x1000
  60:	1000000d 	b	98 <serial_setbrg+0x98>
  64:	34430c08 	ori	v1,v0,0xc08
  68:	3c020727 	lui	v0,0x727
  6c:	10000006 	b	88 <serial_setbrg+0x88>
  70:	34420e00 	ori	v0,v0,0xe00
  74:	3c0204c4 	lui	v0,0x4c4
  78:	10000003 	b	88 <serial_setbrg+0x88>
  7c:	3442b400 	ori	v0,v0,0xb400
  80:	3c0205f5 	lui	v0,0x5f5
  84:	3442e100 	ori	v0,v0,0xe100
  88:	8f830000 	lw	v1,0(gp)
  8c:	ac620000 	sw	v0,0(v1)
  90:	3c021000 	lui	v0,0x1000
  94:	34430c08 	ori	v1,v0,0xc08
  98:	ac600000 	sw	zero,0(v1)
  9c:	34460c14 	ori	a2,v0,0xc14
  a0:	34440c10 	ori	a0,v0,0xc10
  a4:	24030083 	li	v1,131
  a8:	ac800000 	sw	zero,0(a0)
  ac:	34470c30 	ori	a3,v0,0xc30
  b0:	acc30000 	sw	v1,0(a2)
  b4:	34450034 	ori	a1,v0,0x34
  b8:	2403002b 	li	v1,43
  bc:	34420c2c 	ori	v0,v0,0xc2c
  c0:	ac430000 	sw	v1,0(v0)
  c4:	24020003 	li	v0,3
  c8:	ace00000 	sw	zero,0(a3)
  cc:	aca00000 	sw	zero,0(a1)
  d0:	03e00008 	jr	ra
  d4:	acc20000 	sw	v0,0(a2)

000000d8 <serial_init>:
  d8:	3c1c0000 	lui	gp,0x0
  dc:	279c0000 	addiu	gp,gp,0
  e0:	0399e021 	addu	gp,gp,t9
  e4:	27bdffe0 	addiu	sp,sp,-32
  e8:	afbf0018 	sw	ra,24(sp)
  ec:	afbc0010 	sw	gp,16(sp)
  f0:	8f990000 	lw	t9,0(gp)
  f4:	0320f809 	jalr	t9
  f8:	00000000 	nop
  fc:	8fbc0010 	lw	gp,16(sp)
 100:	8fbf0018 	lw	ra,24(sp)
 104:	00001021 	move	v0,zero
 108:	03e00008 	jr	ra
 10c:	27bd0020 	addiu	sp,sp,32

00000110 <serial_putc>:
 110:	3c1c0000 	lui	gp,0x0
 114:	279c0000 	addiu	gp,gp,0
 118:	0399e021 	addu	gp,gp,t9
 11c:	3c051000 	lui	a1,0x1000
 120:	00042600 	sll	a0,a0,0x18
 124:	00042603 	sra	a0,a0,0x18
 128:	34a30c1c 	ori	v1,a1,0xc1c
 12c:	8c620000 	lw	v0,0(v1)
 130:	00021182 	srl	v0,v0,0x6
 134:	38420001 	xori	v0,v0,0x1
 138:	30420001 	andi	v0,v0,0x1
 13c:	1440fffb 	bnez	v0,12c <serial_putc+0x1c>
 140:	34a20c04 	ori	v0,a1,0xc04
 144:	ac440000 	sw	a0,0(v0)
 148:	2402000a 	li	v0,10
 14c:	14820003 	bne	a0,v0,15c <serial_putc+0x4c>
 150:	8f990000 	lw	t9,0(gp)
 154:	03200008 	jr	t9
 158:	2404000d 	li	a0,13
 15c:	03e00008 	jr	ra
 160:	00000000 	nop

00000164 <serial_tstc>:
 164:	3c021000 	lui	v0,0x1000
 168:	34420c1c 	ori	v0,v0,0xc1c
 16c:	8c420000 	lw	v0,0(v0)
 170:	03e00008 	jr	ra
 174:	30420001 	andi	v0,v0,0x1

00000178 <serial_getc>:
 178:	3c041000 	lui	a0,0x1000
 17c:	34830c1c 	ori	v1,a0,0xc1c
 180:	8c620000 	lw	v0,0(v1)
 184:	30420001 	andi	v0,v0,0x1
 188:	1040fffd 	beqz	v0,180 <serial_getc+0x8>
 18c:	34820c00 	ori	v0,a0,0xc00
 190:	8c420000 	lw	v0,0(v0)
 194:	03e00008 	jr	ra
 198:	304200ff 	andi	v0,v0,0xff

0000019c <serial_puts>:
 19c:	3c1c0000 	lui	gp,0x0
 1a0:	279c0000 	addiu	gp,gp,0
 1a4:	0399e021 	addu	gp,gp,t9
 1a8:	27bdffe0 	addiu	sp,sp,-32
 1ac:	afbf001c 	sw	ra,28(sp)
 1b0:	afb00018 	sw	s0,24(sp)
 1b4:	afbc0010 	sw	gp,16(sp)
 1b8:	00808021 	move	s0,a0
 1bc:	92040000 	lbu	a0,0(s0)
 1c0:	10800007 	beqz	a0,1e0 <serial_puts+0x44>
 1c4:	8f990000 	lw	t9,0(gp)
 1c8:	00042600 	sll	a0,a0,0x18
 1cc:	0320f809 	jalr	t9
 1d0:	00042603 	sra	a0,a0,0x18
 1d4:	8fbc0010 	lw	gp,16(sp)
 1d8:	1000fff8 	b	1bc <serial_puts+0x20>
 1dc:	26100001 	addiu	s0,s0,1
 1e0:	8fbf001c 	lw	ra,28(sp)
 1e4:	8fb00018 	lw	s0,24(sp)
 1e8:	03e00008 	jr	ra
 1ec:	27bd0020 	addiu	sp,sp,32
